target datalayout = "e-m:e-p270:32:32-p271:32:32-p272:64:64-i64:64-i128:128-f80:128-n8:16:32:64-S128"
target triple = "x86_64-pc-linux-gnu"

; Function Attrs: nounwind uwtable
define ptr @lv_strncpy(ptr noundef %0, ptr noundef %1, i64 noundef %2) #0 {
  %4 = alloca ptr, align 8
  %5 = alloca ptr, align 8
  %6 = alloca i64, align 8
  %7 = alloca i64, align 8
  store ptr %0, ptr %4, align 8, !tbaa !3
  store ptr %1, ptr %5, align 8, !tbaa !3
  store i64 %2, ptr %6, align 8, !tbaa !7
  call void @llvm.lifetime.start.p0(i64 8, ptr %7) #3
  store i64 0, ptr %7, align 8, !tbaa !7
  br label %8

8:                                                ; preds = %29, %3
  %9 = load i64, ptr %7, align 8, !tbaa !7
  %10 = load i64, ptr %6, align 8, !tbaa !7
  %11 = icmp ult i64 %9, %10
  br i1 %11, label %12, label %19

12:                                               ; preds = %8
  %13 = load ptr, ptr %5, align 8, !tbaa !3
  %14 = load i64, ptr %7, align 8, !tbaa !7
  %15 = getelementptr inbounds nuw i8, ptr %13, i64 %14
  %16 = load i8, ptr %15, align 1, !tbaa !9
  %17 = sext i8 %16 to i32
  %18 = icmp ne i32 %17, 0
  br label %19

19:                                               ; preds = %12, %8
  %20 = phi i1 [ false, %8 ], [ %18, %12 ]
  br i1 %20, label %21, label %32

21:                                               ; preds = %19
  %22 = load ptr, ptr %5, align 8, !tbaa !3
  %23 = load i64, ptr %7, align 8, !tbaa !7
  %24 = getelementptr inbounds nuw i8, ptr %22, i64 %23
  %25 = load i8, ptr %24, align 1, !tbaa !9
  %26 = load ptr, ptr %4, align 8, !tbaa !3
  %27 = load i64, ptr %7, align 8, !tbaa !7
  %28 = getelementptr inbounds nuw i8, ptr %26, i64 %27
  store i8 %25, ptr %28, align 1, !tbaa !9
  br label %29

29:                                               ; preds = %21
  %30 = load i64, ptr %7, align 8, !tbaa !7
  %31 = add i64 %30, 1
  store i64 %31, ptr %7, align 8, !tbaa !7
  br label %8, !llvm.loop !28

32:                                               ; preds = %19
  br label %33

33:                                               ; preds = %41, %32
  %34 = load i64, ptr %7, align 8, !tbaa !7
  %35 = load i64, ptr %6, align 8, !tbaa !7
  %36 = icmp ult i64 %34, %35
  br i1 %36, label %37, label %44

37:                                               ; preds = %33
  %38 = load ptr, ptr %4, align 8, !tbaa !3
  %39 = load i64, ptr %7, align 8, !tbaa !7
  %40 = getelementptr inbounds nuw i8, ptr %38, i64 %39
  store i8 0, ptr %40, align 1, !tbaa !9
  br label %41

41:                                               ; preds = %37
  %42 = load i64, ptr %7, align 8, !tbaa !7
  %43 = add i64 %42, 1
  store i64 %43, ptr %7, align 8, !tbaa !7
  br label %33, !llvm.loop !29

44:                                               ; preds = %33
  %45 = load ptr, ptr %4, align 8, !tbaa !3
  call void @llvm.lifetime.end.p0(i64 8, ptr %7) #3
  ret ptr %45
}