; Function Attrs: nofree norecurse nosync nounwind memory(argmem: readwrite) uwtable
define noundef ptr @lv_strncpy(ptr noundef returned writeonly %0, ptr nocapture noundef readonly %1, i64 noundef %2) local_unnamed_addr #0 {
  %.not19 = icmp eq i64 %2, 0
  br i1 %.not19, label %.critedge, label %.lr.ph

.lr.ph:                                           ; preds = %3, %6
  %.014 = phi i64 [ %8, %6 ], [ 0, %3 ]
  %4 = getelementptr inbounds nuw i8, ptr %1, i64 %.014
  %5 = load i8, ptr %4, align 1, !tbaa !3
  %.not = icmp eq i8 %5, 0
  br i1 %.not, label %.critedge, label %6

6:                                                ; preds = %.lr.ph
  %7 = getelementptr inbounds nuw i8, ptr %0, i64 %.014
  store i8 %5, ptr %7, align 1, !tbaa !3
  %8 = add nuw i64 %.014, 1
  %exitcond.not = icmp eq i64 %8, %2
  br i1 %exitcond.not, label %._crit_edge, label %.lr.ph, !llvm.loop !22

.critedge:                                        ; preds = %.lr.ph, %3
  %.0.lcssa = phi i64 [ 0, %3 ], [ %.014, %.lr.ph ]
  %9 = icmp ult i64 %.0.lcssa, %2
  br i1 %9, label %.lr.ph18.preheader, label %._crit_edge

.lr.ph18.preheader:                               ; preds = %.critedge
  %scevgep = getelementptr i8, ptr %0, i64 %.0.lcssa
  %10 = sub nuw i64 %2, %.0.lcssa
  tail call void @llvm.memset.p0.i64(ptr align 1 %scevgep, i8 0, i64 %10, i1 false), !tbaa !3
  br label %._crit_edge

._crit_edge:                                      ; preds = %6, %.lr.ph18.preheader, %.critedge
  ret ptr %0
}